target datalayout = "e-m:e-p270:32:32-p271:32:32-p272:64:64-i64:64-i128:128-f80:128-n8:16:32:64-S128"
target triple = "x86_64-pc-linux-gnu"

%struct.Vec_Int_t_ = type { i32, i32, ptr }
%struct.Vec_Wec_t_ = type { i32, i32, ptr }

@.str.22 = private unnamed_addr constant [2 x i8] c"\0A\00", align 1
@.str.23 = private unnamed_addr constant [8 x i8] c"%d(%d) \00", align 1
@.str.24 = private unnamed_addr constant [14 x i8] c"  Total = %d\0A\00", align 1
@.str.25 = private unnamed_addr constant [12 x i8] c"\0AOutput %d\0A\00", align 1
@.str.26 = private unnamed_addr constant [13 x i8] c"Multi = %d.\0A\00", align 1

; Function Attrs: inlinehint nounwind uwtable
define internal void @Vec_IntShrink(ptr noundef %0, i32 noundef %1) #2 {
  %3 = alloca ptr, align 8
  %4 = alloca i32, align 4
  store ptr %0, ptr %3, align 8, !tbaa !8
  store i32 %1, ptr %4, align 4, !tbaa !12
  %5 = load i32, ptr %4, align 4, !tbaa !12
  %6 = load ptr, ptr %3, align 8, !tbaa !8
  %7 = getelementptr inbounds nuw %struct.Vec_Int_t_, ptr %6, i32 0, i32 1
  store i32 %5, ptr %7, align 4, !tbaa !43
  ret void
}

; Function Attrs: inlinehint nounwind uwtable
define internal void @Vec_IntWriteEntry(ptr noundef %0, i32 noundef %1, i32 noundef %2) #2 {
  %4 = alloca ptr, align 8
  %5 = alloca i32, align 4
  %6 = alloca i32, align 4
  store ptr %0, ptr %4, align 8, !tbaa !8
  store i32 %1, ptr %5, align 4, !tbaa !12
  store i32 %2, ptr %6, align 4, !tbaa !12
  %7 = load i32, ptr %6, align 4, !tbaa !12
  %8 = load ptr, ptr %4, align 8, !tbaa !8
  %9 = getelementptr inbounds nuw %struct.Vec_Int_t_, ptr %8, i32 0, i32 2
  %10 = load ptr, ptr %9, align 8, !tbaa !17
  %11 = load i32, ptr %5, align 4, !tbaa !12
  %12 = sext i32 %11 to i64
  %13 = getelementptr inbounds i32, ptr %10, i64 %12
  store i32 %7, ptr %13, align 4, !tbaa !12
  ret void
}

; Function Attrs: inlinehint nounwind uwtable
define internal i32 @Vec_IntEntry(ptr noundef %0, i32 noundef %1) #2 {
  %3 = alloca ptr, align 8
  %4 = alloca i32, align 4
  store ptr %0, ptr %3, align 8, !tbaa !8
  store i32 %1, ptr %4, align 4, !tbaa !12
  %5 = load ptr, ptr %3, align 8, !tbaa !8
  %6 = getelementptr inbounds nuw %struct.Vec_Int_t_, ptr %5, i32 0, i32 2
  %7 = load ptr, ptr %6, align 8, !tbaa !17
  %8 = load i32, ptr %4, align 4, !tbaa !12
  %9 = sext i32 %8 to i64
  %10 = getelementptr inbounds i32, ptr %7, i64 %9
  %11 = load i32, ptr %10, align 4, !tbaa !12
  ret i32 %11
}

; Function Attrs: inlinehint nounwind uwtable
define internal i32 @Vec_IntSize(ptr noundef %0) #2 {
  %2 = alloca ptr, align 8
  store ptr %0, ptr %2, align 8, !tbaa !8
  %3 = load ptr, ptr %2, align 8, !tbaa !8
  %4 = getelementptr inbounds nuw %struct.Vec_Int_t_, ptr %3, i32 0, i32 1
  %5 = load i32, ptr %4, align 4, !tbaa !43
  ret i32 %5
}

; Function Attrs: inlinehint nounwind uwtable
define internal i32 @Abc_MaxInt(i32 noundef %0, i32 noundef %1) #2 {
  %3 = alloca i32, align 4
  %4 = alloca i32, align 4
  store i32 %0, ptr %3, align 4, !tbaa !12
  store i32 %1, ptr %4, align 4, !tbaa !12
  %5 = load i32, ptr %3, align 4, !tbaa !12
  %6 = load i32, ptr %4, align 4, !tbaa !12
  %7 = icmp sgt i32 %5, %6
  br i1 %7, label %8, label %10

8:                                                ; preds = %2
  %9 = load i32, ptr %3, align 4, !tbaa !12
  br label %12

10:                                               ; preds = %2
  %11 = load i32, ptr %4, align 4, !tbaa !12
  br label %12

12:                                               ; preds = %10, %8
  %13 = phi i32 [ %9, %8 ], [ %11, %10 ]
  ret i32 %13
}

; Function Attrs: nounwind uwtable
define i32 @Gia_MiniAigSuperMerge(ptr noundef %0, i32 noundef %1) #0 {
  %3 = alloca ptr, align 8
  %4 = alloca i32, align 4
  %5 = alloca i32, align 4
  %6 = alloca i32, align 4
  %7 = alloca i32, align 4
  %8 = alloca i32, align 4
  %9 = alloca i32, align 4
  store ptr %0, ptr %3, align 8, !tbaa !8
  store i32 %1, ptr %4, align 4, !tbaa !12
  call void @llvm.lifetime.start.p0(i64 4, ptr %5) #13
  call void @llvm.lifetime.start.p0(i64 4, ptr %6) #13
  store i32 0, ptr %6, align 4, !tbaa !12
  call void @llvm.lifetime.start.p0(i64 4, ptr %7) #13
  call void @llvm.lifetime.start.p0(i64 4, ptr %8) #13
  store i32 -1, ptr %8, align 4, !tbaa !12
  call void @llvm.lifetime.start.p0(i64 4, ptr %9) #13
  store i32 0, ptr %9, align 4, !tbaa !12
  store i32 0, ptr %5, align 4, !tbaa !12
  br label %10

10:                                               ; preds = %50, %2
  %11 = load i32, ptr %5, align 4, !tbaa !12
  %12 = load ptr, ptr %3, align 8, !tbaa !8
  %13 = call i32 @Vec_IntSize(ptr noundef %12)
  %14 = icmp slt i32 %11, %13
  br i1 %14, label %15, label %19

15:                                               ; preds = %10
  %16 = load ptr, ptr %3, align 8, !tbaa !8
  %17 = load i32, ptr %5, align 4, !tbaa !12
  %18 = call i32 @Vec_IntEntry(ptr noundef %16, i32 noundef %17)
  store i32 %18, ptr %7, align 4, !tbaa !12
  br label %19

19:                                               ; preds = %15, %10
  %20 = phi i1 [ false, %10 ], [ true, %15 ]
  br i1 %20, label %21, label %53

21:                                               ; preds = %19
  %22 = load i32, ptr %8, align 4, !tbaa !12
  %23 = load i32, ptr %7, align 4, !tbaa !12
  %24 = icmp eq i32 %22, %23
  br i1 %24, label %25, label %39

25:                                               ; preds = %21
  %26 = load ptr, ptr %3, align 8, !tbaa !8
  %27 = load i32, ptr %6, align 4, !tbaa !12
  %28 = add nsw i32 %27, 1
  store i32 %28, ptr %6, align 4, !tbaa !12
  %29 = load i32, ptr %7, align 4, !tbaa !12
  %30 = load i32, ptr %4, align 4, !tbaa !12
  %31 = sdiv i32 %29, %30
  %32 = add nsw i32 %31, 1
  %33 = load i32, ptr %4, align 4, !tbaa !12
  %34 = mul nsw i32 %32, %33
  %35 = load i32, ptr %7, align 4, !tbaa !12
  %36 = load i32, ptr %4, align 4, !tbaa !12
  %37 = srem i32 %35, %36
  %38 = add nsw i32 %34, %37
  call void @Vec_IntWriteEntry(ptr noundef %26, i32 noundef %27, i32 noundef %38)
  store i32 -1, ptr %8, align 4, !tbaa !12
  store i32 1, ptr %9, align 4, !tbaa !12
  br label %49

39:                                               ; preds = %21
  %40 = load i32, ptr %8, align 4, !tbaa !12
  %41 = icmp ne i32 %40, -1
  br i1 %41, label %42, label %47

42:                                               ; preds = %39
  %43 = load ptr, ptr %3, align 8, !tbaa !8
  %44 = load i32, ptr %6, align 4, !tbaa !12
  %45 = add nsw i32 %44, 1
  store i32 %45, ptr %6, align 4, !tbaa !12
  %46 = load i32, ptr %8, align 4, !tbaa !12
  call void @Vec_IntWriteEntry(ptr noundef %43, i32 noundef %44, i32 noundef %46)
  br label %47

47:                                               ; preds = %42, %39
  %48 = load i32, ptr %7, align 4, !tbaa !12
  store i32 %48, ptr %8, align 4, !tbaa !12
  br label %49

49:                                               ; preds = %47, %25
  br label %50

50:                                               ; preds = %49
  %51 = load i32, ptr %5, align 4, !tbaa !12
  %52 = add nsw i32 %51, 1
  store i32 %52, ptr %5, align 4, !tbaa !12
  br label %10, !llvm.loop !161

53:                                               ; preds = %19
  %54 = load i32, ptr %8, align 4, !tbaa !12
  %55 = icmp ne i32 %54, -1
  br i1 %55, label %56, label %61

56:                                               ; preds = %53
  %57 = load ptr, ptr %3, align 8, !tbaa !8
  %58 = load i32, ptr %6, align 4, !tbaa !12
  %59 = add nsw i32 %58, 1
  store i32 %59, ptr %6, align 4, !tbaa !12
  %60 = load i32, ptr %8, align 4, !tbaa !12
  call void @Vec_IntWriteEntry(ptr noundef %57, i32 noundef %58, i32 noundef %60)
  br label %61

61:                                               ; preds = %56, %53
  %62 = load ptr, ptr %3, align 8, !tbaa !8
  %63 = load i32, ptr %6, align 4, !tbaa !12
  call void @Vec_IntShrink(ptr noundef %62, i32 noundef %63)
  %64 = load i32, ptr %9, align 4, !tbaa !12
  call void @llvm.lifetime.end.p0(i64 4, ptr %9) #13
  call void @llvm.lifetime.end.p0(i64 4, ptr %8) #13
  call void @llvm.lifetime.end.p0(i64 4, ptr %7) #13
  call void @llvm.lifetime.end.p0(i64 4, ptr %6) #13
  call void @llvm.lifetime.end.p0(i64 4, ptr %5) #13
  ret i32 %64
}

; Function Attrs: nounwind uwtable
define void @Gia_MiniAigSuperPrintDouble(ptr noundef %0, i32 noundef %1) #0 {
  %3 = alloca ptr, align 8
  %4 = alloca i32, align 4
  %5 = alloca i32, align 4
  %6 = alloca i32, align 4
  store ptr %0, ptr %3, align 8, !tbaa !8
  store i32 %1, ptr %4, align 4, !tbaa !12
  call void @llvm.lifetime.start.p0(i64 4, ptr %5) #13
  call void @llvm.lifetime.start.p0(i64 4, ptr %6) #13
  %7 = call i32 (ptr, ...) @printf(ptr noundef @.str.22)
  store i32 0, ptr %5, align 4, !tbaa !12
  br label %8

8:                                                ; preds = %27, %2
  %9 = load i32, ptr %5, align 4, !tbaa !12
  %10 = load ptr, ptr %3, align 8, !tbaa !8
  %11 = call i32 @Vec_IntSize(ptr noundef %10)
  %12 = icmp slt i32 %9, %11
  br i1 %12, label %13, label %17

13:                                               ; preds = %8
  %14 = load ptr, ptr %3, align 8, !tbaa !8
  %15 = load i32, ptr %5, align 4, !tbaa !12
  %16 = call i32 @Vec_IntEntry(ptr noundef %14, i32 noundef %15)
  store i32 %16, ptr %6, align 4, !tbaa !12
  br label %17

17:                                               ; preds = %13, %8
  %18 = phi i1 [ false, %8 ], [ true, %13 ]
  br i1 %18, label %19, label %30

19:                                               ; preds = %17
  %20 = load i32, ptr %6, align 4, !tbaa !12
  %21 = load i32, ptr %4, align 4, !tbaa !12
  %22 = srem i32 %20, %21
  %23 = load i32, ptr %6, align 4, !tbaa !12
  %24 = load i32, ptr %4, align 4, !tbaa !12
  %25 = sdiv i32 %23, %24
  %26 = call i32 (ptr, ...) @printf(ptr noundef @.str.23, i32 noundef %22, i32 noundef %25)
  br label %27

27:                                               ; preds = %19
  %28 = load i32, ptr %5, align 4, !tbaa !12
  %29 = add nsw i32 %28, 1
  store i32 %29, ptr %5, align 4, !tbaa !12
  br label %8, !llvm.loop !160

30:                                               ; preds = %17
  %31 = load ptr, ptr %3, align 8, !tbaa !8
  %32 = call i32 @Vec_IntSize(ptr noundef %31)
  %33 = call i32 (ptr, ...) @printf(ptr noundef @.str.24, i32 noundef %32)
  call void @llvm.lifetime.end.p0(i64 4, ptr %6) #13
  call void @llvm.lifetime.end.p0(i64 4, ptr %5) #13
  ret void
}

; Function Attrs: inlinehint nounwind uwtable
define internal void @Vec_IntSort(ptr noundef %0, i32 noundef %1) #2 {
  %3 = alloca ptr, align 8
  %4 = alloca i32, align 4
  store ptr %0, ptr %3, align 8, !tbaa !8
  store i32 %1, ptr %4, align 4, !tbaa !12
  %5 = load i32, ptr %4, align 4, !tbaa !12
  %6 = icmp ne i32 %5, 0
  br i1 %6, label %7, label %15

7:                                                ; preds = %2
  %8 = load ptr, ptr %3, align 8, !tbaa !8
  %9 = getelementptr inbounds nuw %struct.Vec_Int_t_, ptr %8, i32 0, i32 2
  %10 = load ptr, ptr %9, align 8, !tbaa !17
  %11 = load ptr, ptr %3, align 8, !tbaa !8
  %12 = getelementptr inbounds nuw %struct.Vec_Int_t_, ptr %11, i32 0, i32 1
  %13 = load i32, ptr %12, align 4, !tbaa !43
  %14 = sext i32 %13 to i64
  call void @qsort(ptr noundef %10, i64 noundef %14, i64 noundef 4, ptr noundef @Vec_IntSortCompare2)
  br label %23

15:                                               ; preds = %2
  %16 = load ptr, ptr %3, align 8, !tbaa !8
  %17 = getelementptr inbounds nuw %struct.Vec_Int_t_, ptr %16, i32 0, i32 2
  %18 = load ptr, ptr %17, align 8, !tbaa !17
  %19 = load ptr, ptr %3, align 8, !tbaa !8
  %20 = getelementptr inbounds nuw %struct.Vec_Int_t_, ptr %19, i32 0, i32 1
  %21 = load i32, ptr %20, align 4, !tbaa !43
  %22 = sext i32 %21 to i64
  call void @qsort(ptr noundef %18, i64 noundef %22, i64 noundef 4, ptr noundef @Vec_IntSortCompare1)
  br label %23

23:                                               ; preds = %15, %7
  ret void
}

; Function Attrs: inlinehint nounwind uwtable
define internal ptr @Vec_WecEntry(ptr noundef %0, i32 noundef %1) #2 {
  %3 = alloca ptr, align 8
  %4 = alloca i32, align 4
  store ptr %0, ptr %3, align 8, !tbaa !153
  store i32 %1, ptr %4, align 4, !tbaa !12
  %5 = load ptr, ptr %3, align 8, !tbaa !153
  %6 = getelementptr inbounds nuw %struct.Vec_Wec_t_, ptr %5, i32 0, i32 2
  %7 = load ptr, ptr %6, align 8, !tbaa !159
  %8 = load i32, ptr %4, align 4, !tbaa !12
  %9 = sext i32 %8 to i64
  %10 = getelementptr inbounds %struct.Vec_Int_t_, ptr %7, i64 %9
  ret ptr %10
}

; Function Attrs: inlinehint nounwind uwtable
define internal i32 @Vec_WecSize(ptr noundef %0) #2 {
  %2 = alloca ptr, align 8
  store ptr %0, ptr %2, align 8, !tbaa !153
  %3 = load ptr, ptr %2, align 8, !tbaa !153
  %4 = getelementptr inbounds nuw %struct.Vec_Wec_t_, ptr %3, i32 0, i32 1
  %5 = load i32, ptr %4, align 4, !tbaa !156
  ret i32 %5
}

; Function Attrs: nounwind uwtable
define i32 @Gia_MiniAigSuperPreprocess(ptr noundef %0, ptr noundef %1, i32 noundef %2, i32 noundef %3) #0 {
  %5 = alloca ptr, align 8
  %6 = alloca ptr, align 8
  %7 = alloca i32, align 4
  %8 = alloca i32, align 4
  %9 = alloca ptr, align 8
  %10 = alloca i32, align 4
  %11 = alloca i32, align 4
  %12 = alloca i32, align 4
  store ptr %0, ptr %5, align 8, !tbaa !10
  store ptr %1, ptr %6, align 8, !tbaa !153
  store i32 %2, ptr %7, align 4, !tbaa !12
  store i32 %3, ptr %8, align 4, !tbaa !12
  call void @llvm.lifetime.start.p0(i64 8, ptr %9) #13
  call void @llvm.lifetime.start.p0(i64 4, ptr %10) #13
  call void @llvm.lifetime.start.p0(i64 4, ptr %11) #13
  call void @llvm.lifetime.start.p0(i64 4, ptr %12) #13
  store i32 1, ptr %12, align 4, !tbaa !12
  store i32 0, ptr %10, align 4, !tbaa !12
  br label %13

13:                                               ; preds = %57, %4
  %14 = load i32, ptr %10, align 4, !tbaa !12
  %15 = load ptr, ptr %6, align 8, !tbaa !153
  %16 = call i32 @Vec_WecSize(ptr noundef %15)
  %17 = icmp slt i32 %14, %16
  br i1 %17, label %18, label %22

18:                                               ; preds = %13
  %19 = load ptr, ptr %6, align 8, !tbaa !153
  %20 = load i32, ptr %10, align 4, !tbaa !12
  %21 = call ptr @Vec_WecEntry(ptr noundef %19, i32 noundef %20)
  store ptr %21, ptr %9, align 8, !tbaa !8
  br label %22

22:                                               ; preds = %18, %13
  %23 = phi i1 [ false, %13 ], [ true, %18 ]
  br i1 %23, label %24, label %60

24:                                               ; preds = %22
  %25 = load ptr, ptr %9, align 8, !tbaa !8
  call void @Vec_IntSort(ptr noundef %25, i32 noundef 0)
  %26 = load i32, ptr %8, align 4, !tbaa !12
  %27 = icmp ne i32 %26, 0
  br i1 %27, label %28, label %31

28:                                               ; preds = %24
  %29 = load i32, ptr %10, align 4, !tbaa !12
  %30 = call i32 (ptr, ...) @printf(ptr noundef @.str.25, i32 noundef %29)
  br label %31

31:                                               ; preds = %28, %24
  %32 = load i32, ptr %8, align 4, !tbaa !12
  %33 = icmp ne i32 %32, 0
  br i1 %33, label %34, label %37

34:                                               ; preds = %31
  %35 = load ptr, ptr %9, align 8, !tbaa !8
  %36 = load i32, ptr %7, align 4, !tbaa !12
  call void @Gia_MiniAigSuperPrintDouble(ptr noundef %35, i32 noundef %36)
  br label %37

37:                                               ; preds = %34, %31
  store i32 1, ptr %11, align 4, !tbaa !12
  br label %38

38:                                               ; preds = %50, %37
  %39 = load ptr, ptr %9, align 8, !tbaa !8
  %40 = load i32, ptr %7, align 4, !tbaa !12
  %41 = call i32 @Gia_MiniAigSuperMerge(ptr noundef %39, i32 noundef %40)
  %42 = icmp ne i32 %41, 0
  br i1 %42, label %43, label %53

43:                                               ; preds = %38
  %44 = load i32, ptr %8, align 4, !tbaa !12
  %45 = icmp ne i32 %44, 0
  br i1 %45, label %46, label %49

46:                                               ; preds = %43
  %47 = load ptr, ptr %9, align 8, !tbaa !8
  %48 = load i32, ptr %7, align 4, !tbaa !12
  call void @Gia_MiniAigSuperPrintDouble(ptr noundef %47, i32 noundef %48)
  br label %49

49:                                               ; preds = %46, %43
  br label %50

50:                                               ; preds = %49
  %51 = load i32, ptr %11, align 4, !tbaa !12
  %52 = add nsw i32 %51, 1
  store i32 %52, ptr %11, align 4, !tbaa !12
  br label %38, !llvm.loop !162

53:                                               ; preds = %38
  %54 = load i32, ptr %12, align 4, !tbaa !12
  %55 = load i32, ptr %11, align 4, !tbaa !12
  %56 = call i32 @Abc_MaxInt(i32 noundef %54, i32 noundef %55)
  store i32 %56, ptr %12, align 4, !tbaa !12
  br label %57

57:                                               ; preds = %53
  %58 = load i32, ptr %10, align 4, !tbaa !12
  %59 = add nsw i32 %58, 1
  store i32 %59, ptr %10, align 4, !tbaa !12
  br label %13, !llvm.loop !163

60:                                               ; preds = %22
  %61 = load i32, ptr %8, align 4, !tbaa !12
  %62 = icmp ne i32 %61, 0
  br i1 %62, label %63, label %66

63:                                               ; preds = %60
  %64 = load i32, ptr %12, align 4, !tbaa !12
  %65 = call i32 (ptr, ...) @printf(ptr noundef @.str.26, i32 noundef %64)
  br label %66

66:                                               ; preds = %63, %60
  %67 = load i32, ptr %12, align 4, !tbaa !12
  call void @llvm.lifetime.end.p0(i64 4, ptr %12) #13
  call void @llvm.lifetime.end.p0(i64 4, ptr %11) #13
  call void @llvm.lifetime.end.p0(i64 4, ptr %10) #13
  call void @llvm.lifetime.end.p0(i64 8, ptr %9) #13
  ret i32 %67
}