; Function Attrs: nofree nounwind uwtable
define noundef i32 @Gia_MiniAigSuperPreprocess(ptr readnone captures(none) %0, ptr noundef readonly captures(none) %1, i32 noundef %2, i32 noundef %3) local_unnamed_addr #9 {
  %5 = getelementptr i8, ptr %1, i64 4
  %.val2751 = load i32, ptr %5, align 4, !tbaa !138
  %6 = icmp sgt i32 %.val2751, 0
  br i1 %6, label %.lr.ph, label %.critedge

.lr.ph:                                           ; preds = %4
  %7 = getelementptr i8, ptr %1, i64 8
  %.not23 = icmp eq i32 %3, 0
  br label %8

8:                                                ; preds = %.lr.ph, %.loopexit
  %indvars.iv = phi i64 [ 0, %.lr.ph ], [ %indvars.iv.next, %.loopexit ]
  %.053 = phi i32 [ 1, %.lr.ph ], [ %60, %.loopexit ]
  %.val = load ptr, ptr %7, align 8, !tbaa !137
  %9 = getelementptr inbounds nuw %struct.Vec_Int_t_, ptr %.val, i64 %indvars.iv
  %10 = getelementptr i8, ptr %9, i64 4
  %.val28 = load i32, ptr %10, align 4, !tbaa !34
  %11 = getelementptr i8, ptr %9, i64 8
  %.val29 = load ptr, ptr %11, align 8, !tbaa !11
  %12 = sext i32 %.val28 to i64
  tail call void @qsort(ptr noundef %.val29, i64 noundef %12, i64 noundef 4, ptr noundef nonnull @Vec_IntSortCompare1) #25
  br i1 %.not23, label %.critedge26, label %13

13:                                               ; preds = %8
  %14 = trunc nuw nsw i64 %indvars.iv to i32
  %15 = tail call i32 (ptr, ...) @printf(ptr noundef nonnull dereferenceable(1) @.str.25, i32 noundef %14)
  %putchar.i = tail call i32 @putchar(i32 10)
  %.val1011.i = load i32, ptr %10, align 4, !tbaa !34
  %16 = icmp sgt i32 %.val1011.i, 0
  br i1 %16, label %.lr.ph.i, label %Gia_MiniAigSuperPrintDouble.exit

.lr.ph.i:                                         ; preds = %13, %.lr.ph.i
  %indvars.iv.i = phi i64 [ %indvars.iv.next.i, %.lr.ph.i ], [ 0, %13 ]
  %.val.i = load ptr, ptr %11, align 8, !tbaa !11
  %17 = getelementptr inbounds nuw i32, ptr %.val.i, i64 %indvars.iv.i
  %18 = load i32, ptr %17, align 4, !tbaa !10
  %19 = srem i32 %18, %2
  %20 = sdiv i32 %18, %2
  %21 = tail call i32 (ptr, ...) @printf(ptr noundef nonnull dereferenceable(1) @.str.23, i32 noundef %19, i32 noundef %20)
  %indvars.iv.next.i = add nuw nsw i64 %indvars.iv.i, 1
  %.val10.i = load i32, ptr %10, align 4, !tbaa !34
  %22 = sext i32 %.val10.i to i64
  %23 = icmp slt i64 %indvars.iv.next.i, %22
  br i1 %23, label %.lr.ph.i, label %Gia_MiniAigSuperPrintDouble.exit, !llvm.loop !141

Gia_MiniAigSuperPrintDouble.exit:                 ; preds = %.lr.ph.i, %13
  %.val10.lcssa.i = phi i32 [ %.val1011.i, %13 ], [ %.val10.i, %.lr.ph.i ]
  %24 = tail call i32 (ptr, ...) @printf(ptr noundef nonnull dereferenceable(1) @.str.24, i32 noundef %.val10.lcssa.i)
  br label %.critedge26

.critedge26:                                      ; preds = %8, %Gia_MiniAigSuperPrintDouble.exit
  %.val3337.i49 = load i32, ptr %10, align 4, !tbaa !34
  %25 = icmp sgt i32 %.val3337.i49, 0
  br i1 %25, label %.lr.ph.i30, label %Gia_MiniAigSuperMerge.exit.thread

Gia_MiniAigSuperMerge.exit.thread:                ; preds = %57, %.critedge26
  %.021.lcssa = phi i32 [ 1, %.critedge26 ], [ %58, %57 ]
  store i32 0, ptr %10, align 4, !tbaa !34
  br label %.loopexit

.lr.ph.i30:                                       ; preds = %.critedge26, %57
  %.val33.i60 = phi i32 [ %.val3337.i, %57 ], [ %.val3337.i49, %.critedge26 ]
  %.02150 = phi i32 [ %58, %57 ], [ 1, %.critedge26 ]
  %.val.i31 = load ptr, ptr %11, align 8, !tbaa !11
  br label %26

26:                                               ; preds = %39, %.lr.ph.i30
  %.val33.i58 = phi i32 [ %.val33.i60, %.lr.ph.i30 ], [ %.val33.i, %39 ]
  %indvars.iv.i32 = phi i64 [ 0, %.lr.ph.i30 ], [ %indvars.iv.next.i33, %39 ]
  %.041.i = phi i32 [ 0, %.lr.ph.i30 ], [ %.1.i, %39 ]
  %.02540.i = phi i32 [ -1, %.lr.ph.i30 ], [ %.126.i, %39 ]
  %.02838.i = phi i32 [ 0, %.lr.ph.i30 ], [ %.2.i, %39 ]
  %27 = getelementptr inbounds nuw i32, ptr %.val.i31, i64 %indvars.iv.i32
  %28 = load i32, ptr %27, align 4, !tbaa !10
  %29 = icmp eq i32 %.02540.i, %28
  br i1 %29, label %30, label %36

30:                                               ; preds = %26
  %31 = sdiv i32 %.02540.i, %2
  %32 = add nsw i32 %31, 1
  %33 = mul nsw i32 %32, %2
  %34 = srem i32 %.02540.i, %2
  %35 = add nsw i32 %33, %34
  br label %.sink.split.i

36:                                               ; preds = %26
  %.not32.i = icmp eq i32 %.02540.i, -1
  br i1 %.not32.i, label %39, label %.sink.split.i

.sink.split.i:                                    ; preds = %36, %30
  %.02540.sink.i = phi i32 [ %35, %30 ], [ %.02540.i, %36 ]
  %.126.ph.i = phi i32 [ -1, %30 ], [ %28, %36 ]
  %.1.ph.i = phi i32 [ 1, %30 ], [ %.041.i, %36 ]
  %.2.ph.i = add nsw i32 %.02838.i, 1
  %37 = sext i32 %.02838.i to i64
  %38 = getelementptr inbounds i32, ptr %.val.i31, i64 %37
  store i32 %.02540.sink.i, ptr %38, align 4, !tbaa !10
  %.val33.i.pre = load i32, ptr %10, align 4, !tbaa !34
  br label %39

39:                                               ; preds = %.sink.split.i, %36
  %.val33.i = phi i32 [ %.val33.i58, %36 ], [ %.val33.i.pre, %.sink.split.i ]
  %.2.i = phi i32 [ %.02838.i, %36 ], [ %.2.ph.i, %.sink.split.i ]
  %.126.i = phi i32 [ %28, %36 ], [ %.126.ph.i, %.sink.split.i ]
  %.1.i = phi i32 [ %.041.i, %36 ], [ %.1.ph.i, %.sink.split.i ]
  %indvars.iv.next.i33 = add nuw nsw i64 %indvars.iv.i32, 1
  %40 = sext i32 %.val33.i to i64
  %41 = icmp slt i64 %indvars.iv.next.i33, %40
  br i1 %41, label %26, label %.critedge.i, !llvm.loop !142

.critedge.i:                                      ; preds = %39
  %.not.i = icmp eq i32 %.126.i, -1
  br i1 %.not.i, label %Gia_MiniAigSuperMerge.exit, label %42

42:                                               ; preds = %.critedge.i
  %43 = add nsw i32 %.2.i, 1
  %44 = sext i32 %.2.i to i64
  %45 = getelementptr inbounds i32, ptr %.val.i31, i64 %44
  store i32 %.126.i, ptr %45, align 4, !tbaa !10
  br label %Gia_MiniAigSuperMerge.exit

Gia_MiniAigSuperMerge.exit:                       ; preds = %.critedge.i, %42
  %.3.i = phi i32 [ %43, %42 ], [ %.2.i, %.critedge.i ]
  store i32 %.3.i, ptr %10, align 4, !tbaa !34
  %.not24 = icmp eq i32 %.1.i, 0
  br i1 %.not24, label %.loopexit, label %46

46:                                               ; preds = %Gia_MiniAigSuperMerge.exit
  br i1 %.not23, label %57, label %47

47:                                               ; preds = %46
  %putchar.i34 = tail call i32 @putchar(i32 10)
  %.val1011.i35 = load i32, ptr %10, align 4, !tbaa !34
  %48 = icmp sgt i32 %.val1011.i35, 0
  br i1 %48, label %.lr.ph.i38, label %Gia_MiniAigSuperPrintDouble.exit43

.lr.ph.i38:                                       ; preds = %47, %.lr.ph.i38
  %indvars.iv.i39 = phi i64 [ %indvars.iv.next.i41, %.lr.ph.i38 ], [ 0, %47 ]
  %.val.i40 = load ptr, ptr %11, align 8, !tbaa !11
  %49 = getelementptr inbounds nuw i32, ptr %.val.i40, i64 %indvars.iv.i39
  %50 = load i32, ptr %49, align 4, !tbaa !10
  %51 = srem i32 %50, %2
  %52 = sdiv i32 %50, %2
  %53 = tail call i32 (ptr, ...) @printf(ptr noundef nonnull dereferenceable(1) @.str.23, i32 noundef %51, i32 noundef %52)
  %indvars.iv.next.i41 = add nuw nsw i64 %indvars.iv.i39, 1
  %.val10.i42 = load i32, ptr %10, align 4, !tbaa !34
  %54 = sext i32 %.val10.i42 to i64
  %55 = icmp slt i64 %indvars.iv.next.i41, %54
  br i1 %55, label %.lr.ph.i38, label %Gia_MiniAigSuperPrintDouble.exit43, !llvm.loop !141

Gia_MiniAigSuperPrintDouble.exit43:               ; preds = %.lr.ph.i38, %47
  %.val10.lcssa.i37 = phi i32 [ %.val1011.i35, %47 ], [ %.val10.i42, %.lr.ph.i38 ]
  %56 = tail call i32 (ptr, ...) @printf(ptr noundef nonnull dereferenceable(1) @.str.24, i32 noundef %.val10.lcssa.i37)
  %.val3337.i.pre = load i32, ptr %10, align 4, !tbaa !34
  br label %57

57:                                               ; preds = %46, %Gia_MiniAigSuperPrintDouble.exit43
  %.val3337.i = phi i32 [ %.3.i, %46 ], [ %.val3337.i.pre, %Gia_MiniAigSuperPrintDouble.exit43 ]
  %58 = add nuw nsw i32 %.02150, 1
  %59 = icmp sgt i32 %.val3337.i, 0
  br i1 %59, label %.lr.ph.i30, label %Gia_MiniAigSuperMerge.exit.thread, !llvm.loop !143

.loopexit:                                        ; preds = %Gia_MiniAigSuperMerge.exit, %Gia_MiniAigSuperMerge.exit.thread
  %.02148 = phi i32 [ %.021.lcssa, %Gia_MiniAigSuperMerge.exit.thread ], [ %.02150, %Gia_MiniAigSuperMerge.exit ]
  %60 = tail call noundef i32 @llvm.smax.i32(i32 %.053, i32 %.02148)
  %indvars.iv.next = add nuw nsw i64 %indvars.iv, 1
  %.val27 = load i32, ptr %5, align 4, !tbaa !138
  %61 = sext i32 %.val27 to i64
  %62 = icmp slt i64 %indvars.iv.next, %61
  br i1 %62, label %8, label %.critedge, !llvm.loop !144

.critedge:                                        ; preds = %.loopexit, %4
  %.0.lcssa = phi i32 [ 1, %4 ], [ %60, %.loopexit ]
  %.not = icmp eq i32 %3, 0
  br i1 %.not, label %65, label %63

63:                                               ; preds = %.critedge
  %64 = tail call i32 (ptr, ...) @printf(ptr noundef nonnull dereferenceable(1) @.str.26, i32 noundef %.0.lcssa)
  br label %65

65:                                               ; preds = %63, %.critedge
  ret i32 %.0.lcssa
}